target datalayout = "e-m:e-p270:32:32-p271:32:32-p272:64:64-i64:64-i128:128-f80:128-n8:16:32:64-S128"
target triple = "x86_64-pc-linux-gnu"

%"struct.std::pair" = type <{ i64, i16, [6 x i8] }>
%"struct.std::pair.6" = type <{ i32, i16, [2 x i8] }>
%"struct.std::pair.12" = type { i32, i32 }

; Function Attrs: mustprogress nounwind uwtable
define linkonce_odr hidden void @_ZNSt4pairIjsEC2IRjRsTnNSt9enable_ifIXaaclsr5_PCCPE22_MoveConstructiblePairIT_T0_EEclsr5_PCCPE30_ImplicitlyMoveConvertiblePairIS5_S6_EEEbE4typeELb1EEEOS5_OS6_(ptr noundef nonnull align 4 dereferenceable(6) %0, ptr noundef nonnull align 4 dereferenceable(4) %1, ptr noundef nonnull align 2 dereferenceable(2) %2) unnamed_addr #0 comdat align 2 {
  %4 = alloca ptr, align 8
  %5 = alloca ptr, align 8
  %6 = alloca ptr, align 8
  store ptr %0, ptr %4, align 8
  store ptr %1, ptr %5, align 8
  store ptr %2, ptr %6, align 8
  %7 = load ptr, ptr %4, align 8
  %8 = getelementptr inbounds nuw %"struct.std::pair.6", ptr %7, i32 0, i32 0
  %9 = load ptr, ptr %5, align 8
  %10 = load i32, ptr %9, align 4
  store i32 %10, ptr %8, align 4
  %11 = getelementptr inbounds nuw %"struct.std::pair.6", ptr %7, i32 0, i32 1
  %12 = load ptr, ptr %6, align 8
  %13 = load i16, ptr %12, align 2
  store i16 %13, ptr %11, align 4
  ret void
}

; Function Attrs: mustprogress nounwind uwtable
define linkonce_odr hidden void @_ZNSt4pairIjiEC2IjiTnNSt9enable_ifIXaaclsr5_PCCPE22_MoveConstructiblePairIT_T0_EEclsr5_PCCPE30_ImplicitlyMoveConvertiblePairIS3_S4_EEEbE4typeELb1EEEOS3_OS4_(ptr noundef nonnull align 4 dereferenceable(8) %0, ptr noundef nonnull align 4 dereferenceable(4) %1, ptr noundef nonnull align 4 dereferenceable(4) %2) unnamed_addr #0 comdat align 2 {
  %4 = alloca ptr, align 8
  %5 = alloca ptr, align 8
  %6 = alloca ptr, align 8
  store ptr %0, ptr %4, align 8
  store ptr %1, ptr %5, align 8
  store ptr %2, ptr %6, align 8
  %7 = load ptr, ptr %4, align 8
  %8 = getelementptr inbounds nuw %"struct.std::pair.12", ptr %7, i32 0, i32 0
  %9 = load ptr, ptr %5, align 8
  %10 = load i32, ptr %9, align 4
  store i32 %10, ptr %8, align 4
  %11 = getelementptr inbounds nuw %"struct.std::pair.12", ptr %7, i32 0, i32 1
  %12 = load ptr, ptr %6, align 8
  %13 = load i32, ptr %12, align 4
  store i32 %13, ptr %11, align 4
  ret void
}

; Function Attrs: mustprogress nounwind uwtable
define linkonce_odr hidden void @_ZNSt4pairImsEC2IRmRsTnNSt9enable_ifIXaaclsr5_PCCPE22_MoveConstructiblePairIT_T0_EEclsr5_PCCPE30_ImplicitlyMoveConvertiblePairIS5_S6_EEEbE4typeELb1EEEOS5_OS6_(ptr noundef nonnull align 8 dereferenceable(10) %0, ptr noundef nonnull align 8 dereferenceable(8) %1, ptr noundef nonnull align 2 dereferenceable(2) %2) unnamed_addr #0 comdat align 2 {
  %4 = alloca ptr, align 8
  %5 = alloca ptr, align 8
  %6 = alloca ptr, align 8
  store ptr %0, ptr %4, align 8
  store ptr %1, ptr %5, align 8
  store ptr %2, ptr %6, align 8
  %7 = load ptr, ptr %4, align 8
  %8 = getelementptr inbounds nuw %"struct.std::pair", ptr %7, i32 0, i32 0
  %9 = load ptr, ptr %5, align 8
  %10 = load i64, ptr %9, align 8
  store i64 %10, ptr %8, align 8
  %11 = getelementptr inbounds nuw %"struct.std::pair", ptr %7, i32 0, i32 1
  %12 = load ptr, ptr %6, align 8
  %13 = load i16, ptr %12, align 2
  store i16 %13, ptr %11, align 8
  ret void
}

; Function Attrs: mustprogress nounwind uwtable
define linkonce_odr i64 @_ZSt9make_pairIRjRsESt4pairINSt25__strip_reference_wrapperINSt5decayIT_E4typeEE6__typeENS3_INS4_IT0_E4typeEE6__typeEEOS5_OSA_(ptr noundef nonnull align 4 dereferenceable(4) %0, ptr noundef nonnull align 2 dereferenceable(2) %1) #0 comdat {
  %3 = alloca %"struct.std::pair.6", align 4
  %4 = alloca ptr, align 8
  %5 = alloca ptr, align 8
  store ptr %0, ptr %4, align 8
  store ptr %1, ptr %5, align 8
  %6 = load ptr, ptr %4, align 8
  %7 = load ptr, ptr %5, align 8
  call void @_ZNSt4pairIjsEC2IRjRsTnNSt9enable_ifIXaaclsr5_PCCPE22_MoveConstructiblePairIT_T0_EEclsr5_PCCPE30_ImplicitlyMoveConvertiblePairIS5_S6_EEEbE4typeELb1EEEOS5_OS6_(ptr noundef nonnull align 4 dereferenceable(6) %3, ptr noundef nonnull align 4 dereferenceable(4) %6, ptr noundef nonnull align 2 dereferenceable(2) %7)
  %8 = load i64, ptr %3, align 4
  ret i64 %8
}

; Function Attrs: mustprogress nounwind uwtable
define linkonce_odr hidden void @_ZNSt4pairIjsEC2IjiTnNSt9enable_ifIXaaclsr6_PCCFPIT_T0_EE22_MoveConstructiblePairIS3_S4_EEclsr6_PCCFPIS3_S4_EE30_ImplicitlyMoveConvertiblePairIS3_S4_EEEbE4typeELb1EEEOS_IS3_S4_E(ptr noundef nonnull align 4 dereferenceable(6) %0, ptr noundef nonnull align 4 dereferenceable(8) %1) unnamed_addr #0 comdat align 2 {
  %3 = alloca ptr, align 8
  %4 = alloca ptr, align 8
  store ptr %0, ptr %3, align 8
  store ptr %1, ptr %4, align 8
  %5 = load ptr, ptr %3, align 8
  %6 = getelementptr inbounds nuw %"struct.std::pair.6", ptr %5, i32 0, i32 0
  %7 = load ptr, ptr %4, align 8
  %8 = getelementptr inbounds nuw %"struct.std::pair.12", ptr %7, i32 0, i32 0
  %9 = load i32, ptr %8, align 4
  store i32 %9, ptr %6, align 4
  %10 = getelementptr inbounds nuw %"struct.std::pair.6", ptr %5, i32 0, i32 1
  %11 = load ptr, ptr %4, align 8
  %12 = getelementptr inbounds nuw %"struct.std::pair.12", ptr %11, i32 0, i32 1
  %13 = load i32, ptr %12, align 4
  %14 = trunc i32 %13 to i16
  store i16 %14, ptr %10, align 4
  ret void
}

; Function Attrs: mustprogress nounwind uwtable
define linkonce_odr i64 @_ZSt9make_pairIjiESt4pairINSt25__strip_reference_wrapperINSt5decayIT_E4typeEE6__typeENS1_INS2_IT0_E4typeEE6__typeEEOS3_OS8_(ptr noundef nonnull align 4 dereferenceable(4) %0, ptr noundef nonnull align 4 dereferenceable(4) %1) #0 comdat {
  %3 = alloca %"struct.std::pair.12", align 4
  %4 = alloca ptr, align 8
  %5 = alloca ptr, align 8
  store ptr %0, ptr %4, align 8
  store ptr %1, ptr %5, align 8
  %6 = load ptr, ptr %4, align 8
  %7 = load ptr, ptr %5, align 8
  call void @_ZNSt4pairIjiEC2IjiTnNSt9enable_ifIXaaclsr5_PCCPE22_MoveConstructiblePairIT_T0_EEclsr5_PCCPE30_ImplicitlyMoveConvertiblePairIS3_S4_EEEbE4typeELb1EEEOS3_OS4_(ptr noundef nonnull align 4 dereferenceable(8) %3, ptr noundef nonnull align 4 dereferenceable(4) %6, ptr noundef nonnull align 4 dereferenceable(4) %7)
  %8 = load i64, ptr %3, align 4
  ret i64 %8
}

; Function Attrs: mustprogress nounwind uwtable
define linkonce_odr noundef i32 @_ZN4llvm9bit_widthImEEiT_(i64 noundef %0) #0 comdat {
  %2 = alloca i64, align 8
  store i64 %0, ptr %2, align 8
  %3 = load i64, ptr %2, align 8
  %4 = call noundef i32 @_ZN4llvm11countl_zeroImEEiT_(i64 noundef %3)
  %5 = sub nsw i32 64, %4
  ret i32 %5
}

; Function Attrs: mustprogress nounwind uwtable
define linkonce_odr hidden void @_ZNSt4pairIjsEC2ImsTnNSt9enable_ifIXaaclsr6_PCCFPIT_T0_EE22_MoveConstructiblePairIS3_S4_EEclsr6_PCCFPIS3_S4_EE30_ImplicitlyMoveConvertiblePairIS3_S4_EEEbE4typeELb1EEEOS_IS3_S4_E(ptr noundef nonnull align 4 dereferenceable(6) %0, ptr noundef nonnull align 8 dereferenceable(10) %1) unnamed_addr #0 comdat align 2 {
  %3 = alloca ptr, align 8
  %4 = alloca ptr, align 8
  store ptr %0, ptr %3, align 8
  store ptr %1, ptr %4, align 8
  %5 = load ptr, ptr %3, align 8
  %6 = getelementptr inbounds nuw %"struct.std::pair.6", ptr %5, i32 0, i32 0
  %7 = load ptr, ptr %4, align 8
  %8 = getelementptr inbounds nuw %"struct.std::pair", ptr %7, i32 0, i32 0
  %9 = load i64, ptr %8, align 8
  %10 = trunc i64 %9 to i32
  store i32 %10, ptr %6, align 4
  %11 = getelementptr inbounds nuw %"struct.std::pair.6", ptr %5, i32 0, i32 1
  %12 = load ptr, ptr %4, align 8
  %13 = getelementptr inbounds nuw %"struct.std::pair", ptr %12, i32 0, i32 1
  %14 = load i16, ptr %13, align 2
  store i16 %14, ptr %11, align 4
  ret void
}

; Function Attrs: mustprogress nounwind uwtable
define linkonce_odr { i64, i16 } @_ZSt9make_pairIRmRsESt4pairINSt25__strip_reference_wrapperINSt5decayIT_E4typeEE6__typeENS3_INS4_IT0_E4typeEE6__typeEEOS5_OSA_(ptr noundef nonnull align 8 dereferenceable(8) %0, ptr noundef nonnull align 2 dereferenceable(2) %1) #0 comdat {
  %3 = alloca %"struct.std::pair", align 8
  %4 = alloca ptr, align 8
  %5 = alloca ptr, align 8
  store ptr %0, ptr %4, align 8
  store ptr %1, ptr %5, align 8
  %6 = load ptr, ptr %4, align 8
  %7 = load ptr, ptr %5, align 8
  call void @_ZNSt4pairImsEC2IRmRsTnNSt9enable_ifIXaaclsr5_PCCPE22_MoveConstructiblePairIT_T0_EEclsr5_PCCPE30_ImplicitlyMoveConvertiblePairIS5_S6_EEEbE4typeELb1EEEOS5_OS6_(ptr noundef nonnull align 8 dereferenceable(10) %3, ptr noundef nonnull align 8 dereferenceable(8) %6, ptr noundef nonnull align 2 dereferenceable(2) %7)
  %8 = load { i64, i16 }, ptr %3, align 8
  ret { i64, i16 } %8
}

; Function Attrs: mustprogress nounwind uwtable
define linkonce_odr hidden noundef i32 @_ZNSt14numeric_limitsIjE3maxEv() #0 comdat align 2 {
  ret i32 -1
}

; Function Attrs: mustprogress nounwind uwtable
define linkonce_odr hidden noundef i32 @_ZN4llvm13ScaledNumbers8getWidthIjEEiv() #0 comdat {
  ret i32 32
}

; Function Attrs: mustprogress nounwind uwtable
define linkonce_odr hidden noundef i32 @_ZN4llvm6detail19LeadingZerosCounterImLm8EE5countEm(i64 noundef %0) #0 comdat align 2 {
  %2 = alloca i32, align 4
  %3 = alloca i64, align 8
  store i64 %0, ptr %3, align 8
  %4 = load i64, ptr %3, align 8
  %5 = icmp eq i64 %4, 0
  br i1 %5, label %6, label %7

6:                                                ; preds = %1
  store i32 64, ptr %2, align 4
  br label %11

7:                                                ; preds = %1
  %8 = load i64, ptr %3, align 8
  %9 = call i64 @llvm.ctlz.i64(i64 %8, i1 true)
  %10 = trunc i64 %9 to i32
  store i32 %10, ptr %2, align 4
  br label %11

11:                                               ; preds = %7, %6
  %12 = load i32, ptr %2, align 4
  ret i32 %12
}

; Function Attrs: mustprogress nounwind uwtable
define linkonce_odr hidden i64 @_ZN4llvm13ScaledNumbers10getRoundedIjEESt4pairIT_sES3_sb(i32 noundef %0, i16 noundef signext %1, i1 noundef zeroext %2) #0 comdat {
  %4 = alloca %"struct.std::pair.6", align 4
  %5 = alloca i32, align 4
  %6 = alloca i16, align 2
  %7 = alloca i8, align 1
  %8 = alloca %"struct.std::pair.12", align 4
  %9 = alloca i32, align 4
  %10 = alloca i32, align 4
  store i32 %0, ptr %5, align 4
  store i16 %1, ptr %6, align 2
  %11 = zext i1 %2 to i8
  store i8 %11, ptr %7, align 1
  %12 = load i8, ptr %7, align 1
  %13 = trunc i8 %12 to i1
  br i1 %13, label %14, label %27

14:                                               ; preds = %3
  %15 = load i32, ptr %5, align 4
  %16 = add i32 %15, 1
  store i32 %16, ptr %5, align 4
  %17 = icmp ne i32 %16, 0
  br i1 %17, label %26, label %18

18:                                               ; preds = %14
  %19 = call noundef i32 @_ZN4llvm13ScaledNumbers8getWidthIjEEiv()
  %20 = sub nsw i32 %19, 1
  %21 = shl i32 1, %20
  store i32 %21, ptr %9, align 4
  %22 = load i16, ptr %6, align 2
  %23 = sext i16 %22 to i32
  %24 = add nsw i32 %23, 1
  store i32 %24, ptr %10, align 4
  %25 = call i64 @_ZSt9make_pairIjiESt4pairINSt25__strip_reference_wrapperINSt5decayIT_E4typeEE6__typeENS1_INS2_IT0_E4typeEE6__typeEEOS3_OS8_(ptr noundef nonnull align 4 dereferenceable(4) %9, ptr noundef nonnull align 4 dereferenceable(4) %10)
  store i64 %25, ptr %8, align 4
  call void @_ZNSt4pairIjsEC2IjiTnNSt9enable_ifIXaaclsr6_PCCFPIT_T0_EE22_MoveConstructiblePairIS3_S4_EEclsr6_PCCFPIS3_S4_EE30_ImplicitlyMoveConvertiblePairIS3_S4_EEEbE4typeELb1EEEOS_IS3_S4_E(ptr noundef nonnull align 4 dereferenceable(6) %4, ptr noundef nonnull align 4 dereferenceable(8) %8)
  br label %30

26:                                               ; preds = %14
  br label %27

27:                                               ; preds = %26, %3
  %28 = call i64 @_ZSt9make_pairIRjRsESt4pairINSt25__strip_reference_wrapperINSt5decayIT_E4typeEE6__typeENS3_INS4_IT0_E4typeEE6__typeEEOS5_OSA_(ptr noundef nonnull align 4 dereferenceable(4) %5, ptr noundef nonnull align 2 dereferenceable(2) %6)
  %29 = trunc i64 %28 to i48
  store i48 %29, ptr %4, align 4
  br label %30

30:                                               ; preds = %27, %18
  %31 = load i64, ptr %4, align 4
  ret i64 %31
}

; Function Attrs: mustprogress nounwind uwtable
define internal noundef i64 @_ZL7getHalfm(i64 noundef %0) #0 {
  %2 = alloca i64, align 8
  store i64 %0, ptr %2, align 8
  %3 = load i64, ptr %2, align 8
  %4 = lshr i64 %3, 1
  %5 = load i64, ptr %2, align 8
  %6 = and i64 %5, 1
  %7 = add i64 %4, %6
  ret i64 %7
}

; Function Attrs: mustprogress nounwind uwtable
define linkonce_odr hidden i64 @_ZN4llvm13ScaledNumbers11getAdjustedIjEESt4pairIT_sEms(i64 noundef %0, i16 noundef signext %1) #0 comdat {
  %3 = alloca %"struct.std::pair.6", align 4
  %4 = alloca i64, align 8
  %5 = alloca i16, align 2
  %6 = alloca i32, align 4
  %7 = alloca %"struct.std::pair", align 8
  %8 = alloca { i64, i16 }, align 8
  %9 = alloca i32, align 4
  store i64 %0, ptr %4, align 8
  store i16 %1, ptr %5, align 2
  %10 = call noundef i32 @_ZN4llvm13ScaledNumbers8getWidthIjEEiv()
  store i32 %10, ptr %6, align 4
  %11 = load i32, ptr %6, align 4
  %12 = icmp eq i32 %11, 64
  br i1 %12, label %18, label %13

13:                                               ; preds = %2
  %14 = load i64, ptr %4, align 8
  %15 = call noundef i32 @_ZNSt14numeric_limitsIjE3maxEv() #8
  %16 = zext i32 %15 to i64
  %17 = icmp ule i64 %14, %16
  br i1 %17, label %18, label %20

18:                                               ; preds = %13, %2
  %19 = call { i64, i16 } @_ZSt9make_pairIRmRsESt4pairINSt25__strip_reference_wrapperINSt5decayIT_E4typeEE6__typeENS3_INS4_IT0_E4typeEE6__typeEEOS5_OSA_(ptr noundef nonnull align 8 dereferenceable(8) %4, ptr noundef nonnull align 2 dereferenceable(2) %5)
  store { i64, i16 } %19, ptr %8, align 8
  call void @llvm.memcpy.p0.p0.i64(ptr align 8 %7, ptr align 8 %8, i64 10, i1 false)
  call void @_ZNSt4pairIjsEC2ImsTnNSt9enable_ifIXaaclsr6_PCCFPIT_T0_EE22_MoveConstructiblePairIS3_S4_EEclsr6_PCCFPIS3_S4_EE30_ImplicitlyMoveConvertiblePairIS3_S4_EEEbE4typeELb1EEEOS_IS3_S4_E(ptr noundef nonnull align 4 dereferenceable(6) %3, ptr noundef nonnull align 8 dereferenceable(10) %7)
  br label %44

20:                                               ; preds = %13
  %21 = load i64, ptr %4, align 8
  %22 = call noundef i32 @_ZN4llvm9bit_widthImEEiT_(i64 noundef %21)
  %23 = load i32, ptr %6, align 4
  %24 = sub nsw i32 %22, %23
  store i32 %24, ptr %9, align 4
  %25 = load i64, ptr %4, align 8
  %26 = load i32, ptr %9, align 4
  %27 = zext i32 %26 to i64
  %28 = lshr i64 %25, %27
  %29 = trunc i64 %28 to i32
  %30 = load i16, ptr %5, align 2
  %31 = sext i16 %30 to i32
  %32 = load i32, ptr %9, align 4
  %33 = add nsw i32 %31, %32
  %34 = trunc i32 %33 to i16
  %35 = load i64, ptr %4, align 8
  %36 = load i32, ptr %9, align 4
  %37 = sub nsw i32 %36, 1
  %38 = zext i32 %37 to i64
  %39 = shl i64 1, %38
  %40 = and i64 %35, %39
  %41 = icmp ne i64 %40, 0
  %42 = call i64 @_ZN4llvm13ScaledNumbers10getRoundedIjEESt4pairIT_sES3_sb(i32 noundef %29, i16 noundef signext %34, i1 noundef zeroext %41)
  %43 = trunc i64 %42 to i48
  store i48 %43, ptr %3, align 4
  br label %44

44:                                               ; preds = %20, %18
  %45 = load i64, ptr %3, align 4
  ret i64 %45
}

; Function Attrs: mustprogress nounwind uwtable
define linkonce_odr noundef i32 @_ZN4llvm11countl_zeroImEEiT_(i64 noundef %0) #0 comdat {
  %2 = alloca i64, align 8
  store i64 %0, ptr %2, align 8
  %3 = load i64, ptr %2, align 8
  %4 = call noundef i32 @_ZN4llvm6detail19LeadingZerosCounterImLm8EE5countEm(i64 noundef %3)
  ret i32 %4
}

; Function Attrs: mustprogress nounwind uwtable
define dso_local i64 @_ZN4llvm13ScaledNumbers8divide32Ejj(i32 noundef %0, i32 noundef %1) #0 {
  %3 = alloca %"struct.std::pair.6", align 4
  %4 = alloca i32, align 4
  %5 = alloca i32, align 4
  %6 = alloca i64, align 8
  %7 = alloca i32, align 4
  %8 = alloca i32, align 4
  %9 = alloca i64, align 8
  %10 = alloca i64, align 8
  store i32 %0, ptr %4, align 4
  store i32 %1, ptr %5, align 4
  %11 = load i32, ptr %4, align 4
  %12 = zext i32 %11 to i64
  store i64 %12, ptr %6, align 8
  store i32 0, ptr %7, align 4
  %13 = load i64, ptr %6, align 8
  %14 = call noundef i32 @_ZN4llvm11countl_zeroImEEiT_(i64 noundef %13)
  store i32 %14, ptr %8, align 4
  %15 = load i32, ptr %8, align 4
  %16 = icmp ne i32 %15, 0
  br i1 %16, label %17, label %25

17:                                               ; preds = %2
  %18 = load i32, ptr %8, align 4
  %19 = load i32, ptr %7, align 4
  %20 = sub nsw i32 %19, %18
  store i32 %20, ptr %7, align 4
  %21 = load i32, ptr %8, align 4
  %22 = load i64, ptr %6, align 8
  %23 = zext i32 %21 to i64
  %24 = shl i64 %22, %23
  store i64 %24, ptr %6, align 8
  br label %25

25:                                               ; preds = %17, %2
  %26 = load i64, ptr %6, align 8
  %27 = load i32, ptr %5, align 4
  %28 = zext i32 %27 to i64
  %29 = udiv i64 %26, %28
  store i64 %29, ptr %9, align 8
  %30 = load i64, ptr %6, align 8
  %31 = load i32, ptr %5, align 4
  %32 = zext i32 %31 to i64
  %33 = urem i64 %30, %32
  store i64 %33, ptr %10, align 8
  %34 = load i64, ptr %9, align 8
  %35 = icmp ugt i64 %34, 4294967295
  br i1 %35, label %36, label %42

36:                                               ; preds = %25
  %37 = load i64, ptr %9, align 8
  %38 = load i32, ptr %7, align 4
  %39 = trunc i32 %38 to i16
  %40 = call i64 @_ZN4llvm13ScaledNumbers11getAdjustedIjEESt4pairIT_sEms(i64 noundef %37, i16 noundef signext %39)
  %41 = trunc i64 %40 to i48
  store i48 %41, ptr %3, align 4
  br label %54

42:                                               ; preds = %25
  %43 = load i64, ptr %9, align 8
  %44 = trunc i64 %43 to i32
  %45 = load i32, ptr %7, align 4
  %46 = trunc i32 %45 to i16
  %47 = load i64, ptr %10, align 8
  %48 = load i32, ptr %5, align 4
  %49 = zext i32 %48 to i64
  %50 = call noundef i64 @_ZL7getHalfm(i64 noundef %49)
  %51 = icmp uge i64 %47, %50
  %52 = call i64 @_ZN4llvm13ScaledNumbers10getRoundedIjEESt4pairIT_sES3_sb(i32 noundef %44, i16 noundef signext %46, i1 noundef zeroext %51)
  %53 = trunc i64 %52 to i48
  store i48 %53, ptr %3, align 4
  br label %54

54:                                               ; preds = %42, %36
  %55 = load i64, ptr %3, align 4
  ret i64 %55
}