; Function Attrs: mustprogress nofree norecurse nosync nounwind willreturn memory(none) uwtable
define dso_local range(i64 0, 281474976710656) i64 @_ZN4llvm13ScaledNumbers8divide32Ejj(i32 noundef %0, i32 noundef %1) local_unnamed_addr #0 {
  %3 = zext i32 %0 to i64
  %4 = tail call range(i32 0, 33) i32 @llvm.ctlz.i32(i32 %0, i1 false)
  %5 = add nuw nsw i32 %4, 32
  %6 = zext nneg i32 %5 to i64
  %7 = shl i64 %3, %6
  %8 = trunc nuw nsw i32 %5 to i16
  %9 = zext i32 %1 to i64
  %10 = udiv i64 %7, %9
  %11 = urem i64 %7, %9
  %12 = icmp ugt i64 %10, 4294967295
  br i1 %12, label %13, label %28

13:                                               ; preds = %2
  %14 = tail call range(i64 0, 65) i64 @llvm.ctlz.i64(i64 %10, i1 true)
  %15 = trunc nuw nsw i64 %14 to i32
  %16 = sub nuw nsw i32 32, %15
  %17 = zext nneg i32 %16 to i64
  %18 = lshr i64 %10, %17
  %19 = trunc i64 %18 to i32
  %20 = trunc nuw nsw i32 %16 to i16
  %21 = sub nsw i16 %20, %8
  %22 = sub nuw nsw i64 31, %14
  %23 = shl nuw nsw i64 1, %22
  %24 = and i64 %23, %10
  %.not11.i = icmp eq i64 %24, 0
  br i1 %.not11.i, label %_ZN4llvm13ScaledNumbers11getAdjustedIjEESt4pairIT_sEms.exit, label %25

25:                                               ; preds = %13
  %26 = add i32 %19, 1
  %.not.i.i = icmp eq i32 %26, 0
  %spec.select.i = select i1 %.not.i.i, i32 -2147483648, i32 %26
  %27 = zext i1 %.not.i.i to i16
  %spec.select13.i = add nsw i16 %21, %27
  br label %_ZN4llvm13ScaledNumbers11getAdjustedIjEESt4pairIT_sEms.exit

_ZN4llvm13ScaledNumbers11getAdjustedIjEESt4pairIT_sEms.exit: ; preds = %13, %25
  %.sroa.010.sroa.0.0.i = phi i32 [ %19, %13 ], [ %spec.select.i, %25 ]
  %.sroa.010.sroa.3.0.i = phi i16 [ %21, %13 ], [ %spec.select13.i, %25 ]
  %.sroa.010.sroa.3.0.insert.ext.i = zext i16 %.sroa.010.sroa.3.0.i to i64
  %.sroa.010.sroa.3.0.insert.shift.i = shl nuw nsw i64 %.sroa.010.sroa.3.0.insert.ext.i, 32
  %.sroa.010.sroa.0.0.insert.ext.i = zext i32 %.sroa.010.sroa.0.0.i to i64
  %.sroa.010.sroa.0.0.insert.insert.i = or disjoint i64 %.sroa.010.sroa.3.0.insert.shift.i, %.sroa.010.sroa.0.0.insert.ext.i
  br label %36

28:                                               ; preds = %2
  %29 = trunc nuw i64 %10 to i32
  %30 = lshr i64 %9, 1
  %31 = sub nsw i64 %9, %30
  %.not = icmp ult i64 %11, %31
  br i1 %.not, label %34, label %32

32:                                               ; preds = %28
  %33 = add i32 %29, 1
  %.not.i26 = icmp eq i32 %33, 0
  br i1 %.not.i26, label %_ZN4llvm13ScaledNumbers10getRoundedIjEESt4pairIT_sES3_sb.exit, label %34

34:                                               ; preds = %32, %28
  %.0.i = phi i32 [ %33, %32 ], [ %29, %28 ]
  %35 = zext i32 %.0.i to i64
  br label %_ZN4llvm13ScaledNumbers10getRoundedIjEESt4pairIT_sES3_sb.exit

_ZN4llvm13ScaledNumbers10getRoundedIjEESt4pairIT_sES3_sb.exit: ; preds = %32, %34
  %.sroa.010.sroa.0.0.i21 = phi i64 [ %35, %34 ], [ 2147483648, %32 ]
  %.pn = phi i16 [ 0, %34 ], [ 1, %32 ]
  %.sroa.010.sroa.3.0.i22 = sub nsw i16 %.pn, %8
  %.sroa.010.sroa.3.0.insert.ext.i23 = zext i16 %.sroa.010.sroa.3.0.i22 to i64
  %.sroa.010.sroa.3.0.insert.shift.i24 = shl nuw nsw i64 %.sroa.010.sroa.3.0.insert.ext.i23, 32
  %.sroa.010.sroa.0.0.insert.insert.i25 = or disjoint i64 %.sroa.010.sroa.3.0.insert.shift.i24, %.sroa.010.sroa.0.0.i21
  br label %36

36:                                               ; preds = %_ZN4llvm13ScaledNumbers10getRoundedIjEESt4pairIT_sES3_sb.exit, %_ZN4llvm13ScaledNumbers11getAdjustedIjEESt4pairIT_sEms.exit
  %.sroa.0.0.in = phi i64 [ %.sroa.010.sroa.0.0.insert.insert.i, %_ZN4llvm13ScaledNumbers11getAdjustedIjEESt4pairIT_sEms.exit ], [ %.sroa.010.sroa.0.0.insert.insert.i25, %_ZN4llvm13ScaledNumbers10getRoundedIjEESt4pairIT_sES3_sb.exit ]
  ret i64 %.sroa.0.0.in
}